; Function Attrs: nounwind uwtable
define internal void @guc_restore_error_context_callback(ptr noundef readonly captures(address_is_null) %0) #0 {
  %.not = icmp eq ptr %0, null
  br i1 %.not, label %8, label %2

2:                                                ; preds = %1
  %3 = tail call i32 @set_errcontext_domain(ptr noundef null) #29
  %4 = load ptr, ptr %0, align 8
  %5 = getelementptr inbounds nuw i8, ptr %0, i64 8
  %6 = load ptr, ptr %5, align 8
  %7 = tail call i32 (ptr, ...) @errcontext_msg(ptr noundef nonnull @.str.141, ptr noundef %4, ptr noundef %6) #29
  br label %8

8:                                                ; preds = %2, %1
  ret void
}